(dp0
S'A'
p1
(lp2
sS'simType'
p3
I3
sS'alphaHat'
p4
(lp5
sS'ATrueLocations'
p6
cnumpy.core.multiarray
_reconstruct
p7
(cnumpy
matrix
p8
(I0
tp9
S'b'
p10
tp11
Rp12
(I1
(I2
I1
tp13
cnumpy
dtype
p14
(S'f8'
p15
I0
I1
tp16
Rp17
(I3
S'<'
p18
NNNI-1
I-1
I0
tp19
bI00
S'{\x14\xaeG\xe1z\xe4?\x8d(\xed\r\xbe0\xf1?'
p20
tp21
bsS'particlesOverTimeList'
p22
(lp23
sS'weightsOverTimeList'
p24
(lp25
sS'k'
p26
(lp27
sS'z'
p28
(lp29
sS'xVec'
p30
(lp31
sS'stdVec'
p32
(lp33
s.